; ModuleID = '39/866.c'
source_filename = "39/866.c"
target datalayout = "e-m:e-p270:32:32-p271:32:32-p272:64:64-i64:64-f80:128-n8:16:32:64-S128"
target triple = "x86_64-pc-linux-gnu"

%struct.Student = type { [20 x i8], i32, i32, i8, i8, i32, i32 }

@.str = private unnamed_addr constant [3 x i8] c"%d\00", align 1
@n = common dso_local global i32 0, align 4
@.str.1 = private unnamed_addr constant [18 x i8] c"%s %d %d %c %c %d\00", align 1
@stu = common dso_local global [100 x %struct.Student] zeroinitializer, align 16
@.str.2 = private unnamed_addr constant [4 x i8] c"%s\0A\00", align 1
@.str.3 = private unnamed_addr constant [4 x i8] c"%d\0A\00", align 1

; Function Attrs: noinline nounwind uwtable
define dso_local i32 @main() #0 {
  %1 = alloca i32, align 4
  %2 = alloca i32, align 4
  %3 = alloca i32, align 4
  %4 = alloca i32, align 4
  store i32 0, i32* %1, align 4
  %5 = call i32 (i8*, ...) @__isoc99_scanf(i8* getelementptr inbounds ([3 x i8], [3 x i8]* @.str, i64 0, i64 0), i32* @n)
  store i32 0, i32* %3, align 4
  store i32 0, i32* %2, align 4
  br label %6

6:                                                ; preds = %148, %0
  %7 = load i32, i32* %2, align 4
  %8 = load i32, i32* @n, align 4
  %9 = icmp slt i32 %7, %8
  br i1 %9, label %10, label %151

10:                                               ; preds = %6
  %11 = load i32, i32* %2, align 4
  %12 = sext i32 %11 to i64
  %13 = getelementptr inbounds [100 x %struct.Student], [100 x %struct.Student]* @stu, i64 0, i64 %12
  %14 = getelementptr inbounds %struct.Student, %struct.Student* %13, i32 0, i32 0
  %15 = getelementptr inbounds [20 x i8], [20 x i8]* %14, i64 0, i64 0
  %16 = load i32, i32* %2, align 4
  %17 = sext i32 %16 to i64
  %18 = getelementptr inbounds [100 x %struct.Student], [100 x %struct.Student]* @stu, i64 0, i64 %17
  %19 = getelementptr inbounds %struct.Student, %struct.Student* %18, i32 0, i32 1
  %20 = load i32, i32* %2, align 4
  %21 = sext i32 %20 to i64
  %22 = getelementptr inbounds [100 x %struct.Student], [100 x %struct.Student]* @stu, i64 0, i64 %21
  %23 = getelementptr inbounds %struct.Student, %struct.Student* %22, i32 0, i32 2
  %24 = load i32, i32* %2, align 4
  %25 = sext i32 %24 to i64
  %26 = getelementptr inbounds [100 x %struct.Student], [100 x %struct.Student]* @stu, i64 0, i64 %25
  %27 = getelementptr inbounds %struct.Student, %struct.Student* %26, i32 0, i32 3
  %28 = load i32, i32* %2, align 4
  %29 = sext i32 %28 to i64
  %30 = getelementptr inbounds [100 x %struct.Student], [100 x %struct.Student]* @stu, i64 0, i64 %29
  %31 = getelementptr inbounds %struct.Student, %struct.Student* %30, i32 0, i32 4
  %32 = load i32, i32* %2, align 4
  %33 = sext i32 %32 to i64
  %34 = getelementptr inbounds [100 x %struct.Student], [100 x %struct.Student]* @stu, i64 0, i64 %33
  %35 = getelementptr inbounds %struct.Student, %struct.Student* %34, i32 0, i32 5
  %36 = call i32 (i8*, ...) @__isoc99_scanf(i8* getelementptr inbounds ([18 x i8], [18 x i8]* @.str.1, i64 0, i64 0), i8* %15, i32* %19, i32* %23, i8* %27, i8* %31, i32* %35)
  %37 = load i32, i32* %2, align 4
  %38 = sext i32 %37 to i64
  %39 = getelementptr inbounds [100 x %struct.Student], [100 x %struct.Student]* @stu, i64 0, i64 %38
  %40 = getelementptr inbounds %struct.Student, %struct.Student* %39, i32 0, i32 6
  store i32 0, i32* %40, align 4
  %41 = load i32, i32* %2, align 4
  %42 = sext i32 %41 to i64
  %43 = getelementptr inbounds [100 x %struct.Student], [100 x %struct.Student]* @stu, i64 0, i64 %42
  %44 = getelementptr inbounds %struct.Student, %struct.Student* %43, i32 0, i32 1
  %45 = load i32, i32* %44, align 4
  %46 = icmp sgt i32 %45, 80
  br i1 %46, label %47, label %61

47:                                               ; preds = %10
  %48 = load i32, i32* %2, align 4
  %49 = sext i32 %48 to i64
  %50 = getelementptr inbounds [100 x %struct.Student], [100 x %struct.Student]* @stu, i64 0, i64 %49
  %51 = getelementptr inbounds %struct.Student, %struct.Student* %50, i32 0, i32 5
  %52 = load i32, i32* %51, align 8
  %53 = icmp sge i32 %52, 1
  br i1 %53, label %54, label %61

54:                                               ; preds = %47
  %55 = load i32, i32* %2, align 4
  %56 = sext i32 %55 to i64
  %57 = getelementptr inbounds [100 x %struct.Student], [100 x %struct.Student]* @stu, i64 0, i64 %56
  %58 = getelementptr inbounds %struct.Student, %struct.Student* %57, i32 0, i32 6
  %59 = load i32, i32* %58, align 4
  %60 = add nsw i32 %59, 8000
  store i32 %60, i32* %58, align 4
  br label %61

61:                                               ; preds = %54, %47, %10
  %62 = load i32, i32* %2, align 4
  %63 = sext i32 %62 to i64
  %64 = getelementptr inbounds [100 x %struct.Student], [100 x %struct.Student]* @stu, i64 0, i64 %63
  %65 = getelementptr inbounds %struct.Student, %struct.Student* %64, i32 0, i32 1
  %66 = load i32, i32* %65, align 4
  %67 = icmp sgt i32 %66, 85
  br i1 %67, label %68, label %82

68:                                               ; preds = %61
  %69 = load i32, i32* %2, align 4
  %70 = sext i32 %69 to i64
  %71 = getelementptr inbounds [100 x %struct.Student], [100 x %struct.Student]* @stu, i64 0, i64 %70
  %72 = getelementptr inbounds %struct.Student, %struct.Student* %71, i32 0, i32 2
  %73 = load i32, i32* %72, align 8
  %74 = icmp sgt i32 %73, 80
  br i1 %74, label %75, label %82

75:                                               ; preds = %68
  %76 = load i32, i32* %2, align 4
  %77 = sext i32 %76 to i64
  %78 = getelementptr inbounds [100 x %struct.Student], [100 x %struct.Student]* @stu, i64 0, i64 %77
  %79 = getelementptr inbounds %struct.Student, %struct.Student* %78, i32 0, i32 6
  %80 = load i32, i32* %79, align 4
  %81 = add nsw i32 %80, 4000
  store i32 %81, i32* %79, align 4
  br label %82

82:                                               ; preds = %75, %68, %61
  %83 = load i32, i32* %2, align 4
  %84 = sext i32 %83 to i64
  %85 = getelementptr inbounds [100 x %struct.Student], [100 x %struct.Student]* @stu, i64 0, i64 %84
  %86 = getelementptr inbounds %struct.Student, %struct.Student* %85, i32 0, i32 1
  %87 = load i32, i32* %86, align 4
  %88 = icmp sgt i32 %87, 90
  br i1 %88, label %89, label %96

89:                                               ; preds = %82
  %90 = load i32, i32* %2, align 4
  %91 = sext i32 %90 to i64
  %92 = getelementptr inbounds [100 x %struct.Student], [100 x %struct.Student]* @stu, i64 0, i64 %91
  %93 = getelementptr inbounds %struct.Student, %struct.Student* %92, i32 0, i32 6
  %94 = load i32, i32* %93, align 4
  %95 = add nsw i32 %94, 2000
  store i32 %95, i32* %93, align 4
  br label %96

96:                                               ; preds = %89, %82
  %97 = load i32, i32* %2, align 4
  %98 = sext i32 %97 to i64
  %99 = getelementptr inbounds [100 x %struct.Student], [100 x %struct.Student]* @stu, i64 0, i64 %98
  %100 = getelementptr inbounds %struct.Student, %struct.Student* %99, i32 0, i32 1
  %101 = load i32, i32* %100, align 4
  %102 = icmp sgt i32 %101, 85
  br i1 %102, label %103, label %118

103:                                              ; preds = %96
  %104 = load i32, i32* %2, align 4
  %105 = sext i32 %104 to i64
  %106 = getelementptr inbounds [100 x %struct.Student], [100 x %struct.Student]* @stu, i64 0, i64 %105
  %107 = getelementptr inbounds %struct.Student, %struct.Student* %106, i32 0, i32 4
  %108 = load i8, i8* %107, align 1
  %109 = sext i8 %108 to i32
  %110 = icmp eq i32 %109, 89
  br i1 %110, label %111, label %118

111:                                              ; preds = %103
  %112 = load i32, i32* %2, align 4
  %113 = sext i32 %112 to i64
  %114 = getelementptr inbounds [100 x %struct.Student], [100 x %struct.Student]* @stu, i64 0, i64 %113
  %115 = getelementptr inbounds %struct.Student, %struct.Student* %114, i32 0, i32 6
  %116 = load i32, i32* %115, align 4
  %117 = add nsw i32 %116, 1000
  store i32 %117, i32* %115, align 4
  br label %118

118:                                              ; preds = %111, %103, %96
  %119 = load i32, i32* %2, align 4
  %120 = sext i32 %119 to i64
  %121 = getelementptr inbounds [100 x %struct.Student], [100 x %struct.Student]* @stu, i64 0, i64 %120
  %122 = getelementptr inbounds %struct.Student, %struct.Student* %121, i32 0, i32 2
  %123 = load i32, i32* %122, align 8
  %124 = icmp sgt i32 %123, 80
  br i1 %124, label %125, label %140

125:                                              ; preds = %118
  %126 = load i32, i32* %2, align 4
  %127 = sext i32 %126 to i64
  %128 = getelementptr inbounds [100 x %struct.Student], [100 x %struct.Student]* @stu, i64 0, i64 %127
  %129 = getelementptr inbounds %struct.Student, %struct.Student* %128, i32 0, i32 3
  %130 = load i8, i8* %129, align 4
  %131 = sext i8 %130 to i32
  %132 = icmp eq i32 %131, 89
  br i1 %132, label %133, label %140

133:                                              ; preds = %125
  %134 = load i32, i32* %2, align 4
  %135 = sext i32 %134 to i64
  %136 = getelementptr inbounds [100 x %struct.Student], [100 x %struct.Student]* @stu, i64 0, i64 %135
  %137 = getelementptr inbounds %struct.Student, %struct.Student* %136, i32 0, i32 6
  %138 = load i32, i32* %137, align 4
  %139 = add nsw i32 %138, 850
  store i32 %139, i32* %137, align 4
  br label %140

140:                                              ; preds = %133, %125, %118
  %141 = load i32, i32* %2, align 4
  %142 = sext i32 %141 to i64
  %143 = getelementptr inbounds [100 x %struct.Student], [100 x %struct.Student]* @stu, i64 0, i64 %142
  %144 = getelementptr inbounds %struct.Student, %struct.Student* %143, i32 0, i32 6
  %145 = load i32, i32* %144, align 4
  %146 = load i32, i32* %3, align 4
  %147 = add nsw i32 %146, %145
  store i32 %147, i32* %3, align 4
  br label %148

148:                                              ; preds = %140
  %149 = load i32, i32* %2, align 4
  %150 = add nsw i32 %149, 1
  store i32 %150, i32* %2, align 4
  br label %6

151:                                              ; preds = %6
  store i32 0, i32* %4, align 4
  store i32 0, i32* %2, align 4
  br label %152

152:                                              ; preds = %171, %151
  %153 = load i32, i32* %2, align 4
  %154 = load i32, i32* @n, align 4
  %155 = icmp slt i32 %153, %154
  br i1 %155, label %156, label %174

156:                                              ; preds = %152
  %157 = load i32, i32* %4, align 4
  %158 = load i32, i32* %2, align 4
  %159 = sext i32 %158 to i64
  %160 = getelementptr inbounds [100 x %struct.Student], [100 x %struct.Student]* @stu, i64 0, i64 %159
  %161 = getelementptr inbounds %struct.Student, %struct.Student* %160, i32 0, i32 6
  %162 = load i32, i32* %161, align 4
  %163 = icmp slt i32 %157, %162
  br i1 %163, label %164, label %170

164:                                              ; preds = %156
  %165 = load i32, i32* %2, align 4
  %166 = sext i32 %165 to i64
  %167 = getelementptr inbounds [100 x %struct.Student], [100 x %struct.Student]* @stu, i64 0, i64 %166
  %168 = getelementptr inbounds %struct.Student, %struct.Student* %167, i32 0, i32 6
  %169 = load i32, i32* %168, align 4
  store i32 %169, i32* %4, align 4
  br label %170

170:                                              ; preds = %164, %156
  br label %171

171:                                              ; preds = %170
  %172 = load i32, i32* %2, align 4
  %173 = add nsw i32 %172, 1
  store i32 %173, i32* %2, align 4
  br label %152

174:                                              ; preds = %152
  store i32 0, i32* %2, align 4
  br label %175

175:                                              ; preds = %201, %174
  %176 = load i32, i32* %2, align 4
  %177 = load i32, i32* @n, align 4
  %178 = icmp slt i32 %176, %177
  br i1 %178, label %179, label %204

179:                                              ; preds = %175
  %180 = load i32, i32* %2, align 4
  %181 = sext i32 %180 to i64
  %182 = getelementptr inbounds [100 x %struct.Student], [100 x %struct.Student]* @stu, i64 0, i64 %181
  %183 = getelementptr inbounds %struct.Student, %struct.Student* %182, i32 0, i32 6
  %184 = load i32, i32* %183, align 4
  %185 = load i32, i32* %4, align 4
  %186 = icmp eq i32 %184, %185
  br i1 %186, label %187, label %200

187:                                              ; preds = %179
  %188 = load i32, i32* %2, align 4
  %189 = sext i32 %188 to i64
  %190 = getelementptr inbounds [100 x %struct.Student], [100 x %struct.Student]* @stu, i64 0, i64 %189
  %191 = getelementptr inbounds %struct.Student, %struct.Student* %190, i32 0, i32 0
  %192 = getelementptr inbounds [20 x i8], [20 x i8]* %191, i64 0, i64 0
  %193 = call i32 (i8*, ...) @printf(i8* getelementptr inbounds ([4 x i8], [4 x i8]* @.str.2, i64 0, i64 0), i8* %192)
  %194 = load i32, i32* %2, align 4
  %195 = sext i32 %194 to i64
  %196 = getelementptr inbounds [100 x %struct.Student], [100 x %struct.Student]* @stu, i64 0, i64 %195
  %197 = getelementptr inbounds %struct.Student, %struct.Student* %196, i32 0, i32 6
  %198 = load i32, i32* %197, align 4
  %199 = call i32 (i8*, ...) @printf(i8* getelementptr inbounds ([4 x i8], [4 x i8]* @.str.3, i64 0, i64 0), i32 %198)
  br label %204

200:                                              ; preds = %179
  br label %201

201:                                              ; preds = %200
  %202 = load i32, i32* %2, align 4
  %203 = add nsw i32 %202, 1
  store i32 %203, i32* %2, align 4
  br label %175

204:                                              ; preds = %187, %175
  %205 = load i32, i32* %3, align 4
  %206 = call i32 (i8*, ...) @printf(i8* getelementptr inbounds ([4 x i8], [4 x i8]* @.str.3, i64 0, i64 0), i32 %205)
  ret i32 0
}

declare dso_local i32 @__isoc99_scanf(i8*, ...) #1

declare dso_local i32 @printf(i8*, ...) #1


!llvm.module.flags = !{!0}
!llvm.ident = !{!1}

!0 = !{i32 1, !"wchar_size", i32 4}
!1 = !{!"clang version 10.0.0-4ubuntu1 "}
